target datalayout = "e-m:e-p270:32:32-p271:32:32-p272:64:64-i64:64-i128:128-f80:128-n8:16:32:64-S128"
target triple = "x86_64-pc-linux-gnu"

@ipv6_handle = internal global ptr null, align 8

; Function Attrs: null_pointer_is_valid sspstrong uwtable
define internal zeroext i1 @dissect_ip_heur(ptr noundef %0, ptr noundef %1, ptr noundef %2, ptr noundef %3) #1 {
  %5 = alloca i1, align 1
  %6 = alloca ptr, align 8
  %7 = alloca ptr, align 8
  %8 = alloca ptr, align 8
  %9 = alloca ptr, align 8
  %10 = alloca i32, align 4
  %11 = alloca i32, align 4
  %12 = alloca i8, align 1
  %13 = alloca i8, align 1
  %14 = alloca i8, align 1
  %15 = alloca i32, align 4
  store ptr %0, ptr %6, align 8
  store ptr %1, ptr %7, align 8
  store ptr %2, ptr %8, align 8
  store ptr %3, ptr %9, align 8
  call void @llvm.lifetime.start.p0(i64 4, ptr %10) #12
  call void @llvm.lifetime.start.p0(i64 4, ptr %11) #12
  call void @llvm.lifetime.start.p0(i64 1, ptr %12) #12
  call void @llvm.lifetime.start.p0(i64 1, ptr %13) #12
  call void @llvm.lifetime.start.p0(i64 1, ptr %14) #12
  %16 = load ptr, ptr %6, align 8
  %17 = call i32 @tvb_captured_length(ptr noundef %16)
  store i32 %17, ptr %10, align 4
  %18 = load i32, ptr %10, align 4
  %19 = icmp slt i32 %18, 4
  br i1 %19, label %20, label %21

20:                                               ; preds = %4
  store i1 false, ptr %5, align 1
  store i32 1, ptr %15, align 4
  br label %79

21:                                               ; preds = %4
  %22 = load ptr, ptr %6, align 8
  %23 = call zeroext i8 @tvb_get_uint8(ptr noundef %22, i32 noundef 0)
  store i8 %23, ptr %12, align 1
  %24 = load i8, ptr %12, align 1
  %25 = zext i8 %24 to i32
  %26 = and i32 %25, 15
  %27 = trunc i32 %26 to i8
  store i8 %27, ptr %14, align 1
  %28 = load i8, ptr %12, align 1
  %29 = zext i8 %28 to i32
  %30 = ashr i32 %29, 4
  %31 = trunc i32 %30 to i8
  store i8 %31, ptr %13, align 1
  %32 = load i8, ptr %13, align 1
  %33 = zext i8 %32 to i32
  %34 = icmp eq i32 %33, 6
  br i1 %34, label %35, label %55

35:                                               ; preds = %21
  %36 = load i32, ptr %10, align 4
  %37 = icmp slt i32 %36, 8
  br i1 %37, label %38, label %39

38:                                               ; preds = %35
  store i1 false, ptr %5, align 1
  store i32 1, ptr %15, align 4
  br label %79

39:                                               ; preds = %35
  %40 = load ptr, ptr %6, align 8
  %41 = call zeroext i16 @tvb_get_ntohs(ptr noundef %40, i32 noundef 4)
  %42 = zext i16 %41 to i32
  store i32 %42, ptr %11, align 4
  %43 = load i32, ptr %11, align 4
  %44 = add i32 %43, 40
  %45 = load ptr, ptr %6, align 8
  %46 = call i32 @tvb_reported_length(ptr noundef %45)
  %47 = icmp ne i32 %44, %46
  br i1 %47, label %48, label %49

48:                                               ; preds = %39
  store i1 false, ptr %5, align 1
  store i32 1, ptr %15, align 4
  br label %79

49:                                               ; preds = %39
  %50 = load ptr, ptr @ipv6_handle, align 8
  %51 = load ptr, ptr %6, align 8
  %52 = load ptr, ptr %7, align 8
  %53 = load ptr, ptr %8, align 8
  %54 = call i32 @call_dissector(ptr noundef %50, ptr noundef %51, ptr noundef %52, ptr noundef %53)
  store i1 true, ptr %5, align 1
  store i32 1, ptr %15, align 4
  br label %79

55:                                               ; preds = %21
  %56 = load i8, ptr %13, align 1
  %57 = zext i8 %56 to i32
  %58 = icmp ne i32 %57, 4
  br i1 %58, label %63, label %59

59:                                               ; preds = %55
  %60 = load i8, ptr %14, align 1
  %61 = zext i8 %60 to i32
  %62 = icmp slt i32 %61, 5
  br i1 %62, label %63, label %64

63:                                               ; preds = %59, %55
  store i1 false, ptr %5, align 1
  store i32 1, ptr %15, align 4
  br label %79

64:                                               ; preds = %59
  %65 = load ptr, ptr %6, align 8
  %66 = call zeroext i16 @tvb_get_ntohs(ptr noundef %65, i32 noundef 2)
  %67 = zext i16 %66 to i32
  store i32 %67, ptr %11, align 4
  %68 = load i32, ptr %11, align 4
  %69 = load ptr, ptr %6, align 8
  %70 = call i32 @tvb_reported_length(ptr noundef %69)
  %71 = icmp ne i32 %68, %70
  br i1 %71, label %72, label %73

72:                                               ; preds = %64
  store i1 false, ptr %5, align 1
  store i32 1, ptr %15, align 4
  br label %79

73:                                               ; preds = %64
  %74 = load ptr, ptr %6, align 8
  %75 = load ptr, ptr %7, align 8
  %76 = load ptr, ptr %8, align 8
  %77 = load ptr, ptr %9, align 8
  %78 = call i32 @dissect_ip_v4(ptr noundef %74, ptr noundef %75, ptr noundef %76, ptr noundef %77)
  store i1 true, ptr %5, align 1
  store i32 1, ptr %15, align 4
  br label %79

79:                                               ; preds = %73, %72, %63, %49, %48, %38, %20
  call void @llvm.lifetime.end.p0(i64 1, ptr %14) #12
  call void @llvm.lifetime.end.p0(i64 1, ptr %13) #12
  call void @llvm.lifetime.end.p0(i64 1, ptr %12) #12
  call void @llvm.lifetime.end.p0(i64 4, ptr %11) #12
  call void @llvm.lifetime.end.p0(i64 4, ptr %10) #12
  %80 = load i1, ptr %5, align 1
  ret i1 %80
}