; Function Attrs: null_pointer_is_valid sspstrong uwtable
define internal noundef zeroext i1 @dissect_ip_heur(ptr noundef %0, ptr noundef %1, ptr noundef %2, ptr readnone captures(none) %3) #1 {
  %5 = tail call i32 @tvb_captured_length(ptr noundef %0)
  %6 = icmp slt i32 %5, 4
  br i1 %6, label %31, label %7

7:                                                ; preds = %4
  %8 = tail call zeroext i8 @tvb_get_uint8(ptr noundef %0, i32 noundef 0)
  %9 = lshr i8 %8, 4
  %10 = icmp eq i8 %9, 6
  br i1 %10, label %11, label %21

11:                                               ; preds = %7
  %12 = icmp samesign ult i32 %5, 8
  br i1 %12, label %31, label %13

13:                                               ; preds = %11
  %14 = tail call zeroext i16 @tvb_get_ntohs(ptr noundef %0, i32 noundef 4)
  %15 = zext i16 %14 to i32
  %16 = add nuw nsw i32 %15, 40
  %17 = tail call i32 @tvb_reported_length(ptr noundef %0)
  %.not26 = icmp eq i32 %16, %17
  br i1 %.not26, label %18, label %31

18:                                               ; preds = %13
  %19 = load ptr, ptr @ipv6_handle, align 8
  %20 = tail call i32 @call_dissector(ptr noundef %19, ptr noundef %0, ptr noundef %1, ptr noundef %2)
  br label %31

21:                                               ; preds = %7
  %22 = and i8 %8, 15
  %23 = icmp ne i8 %9, 4
  %24 = icmp samesign ult i8 %22, 5
  %or.cond = select i1 %23, i1 true, i1 %24
  br i1 %or.cond, label %31, label %25

25:                                               ; preds = %21
  %26 = tail call zeroext i16 @tvb_get_ntohs(ptr noundef %0, i32 noundef 2)
  %27 = zext i16 %26 to i32
  %28 = tail call i32 @tvb_reported_length(ptr noundef %0)
  %.not = icmp eq i32 %28, %27
  br i1 %.not, label %29, label %31

29:                                               ; preds = %25
  %30 = tail call i32 @dissect_ip_v4(ptr noundef %0, ptr noundef %1, ptr noundef %2, ptr poison)
  br label %31

31:                                               ; preds = %25, %21, %13, %11, %4, %29, %18
  %.0 = phi i1 [ true, %18 ], [ true, %29 ], [ false, %4 ], [ false, %11 ], [ false, %13 ], [ false, %21 ], [ false, %25 ]
  ret i1 %.0
}